; Function Attrs: mustprogress nounwind uwtable
define hidden noundef ptr @_ZNK16MemoryGraphFixer12ctrl_or_selfEP4Node(ptr nocapture noundef nonnull readonly align 8 dereferenceable(49) %0, ptr noundef %1) local_unnamed_addr #0 align 2 {
  %3 = getelementptr inbounds i8, ptr %0, i64 40
  %4 = load ptr, ptr %3, align 8
  %5 = getelementptr inbounds i8, ptr %1, i64 40
  %6 = load i32, ptr %5, align 8
  %7 = getelementptr inbounds i8, ptr %4, i64 32
  %8 = load i32, ptr %7, align 8
  %9 = icmp ugt i32 %8, %6
  br i1 %9, label %_ZNK14PhaseIdealLoop8has_ctrlEPK4Node.exit, label %_ZNK14PhaseIdealLoop8has_ctrlEPK4Node.exit.thread

_ZNK14PhaseIdealLoop8has_ctrlEPK4Node.exit:       ; preds = %2
  %10 = getelementptr inbounds i8, ptr %4, i64 40
  %11 = load ptr, ptr %10, align 8
  %12 = zext i32 %6 to i64
  %13 = getelementptr inbounds ptr, ptr %11, i64 %12
  %14 = load ptr, ptr %13, align 8
  %15 = ptrtoint ptr %14 to i64
  %16 = and i64 %15, 1
  %.not = icmp eq i64 %16, 0
  br i1 %.not, label %_ZNK14PhaseIdealLoop8has_ctrlEPK4Node.exit.thread, label %17

17:                                               ; preds = %_ZNK14PhaseIdealLoop8has_ctrlEPK4Node.exit
  %18 = tail call noundef ptr @_ZNK16MemoryGraphFixer8get_ctrlEP4Node(ptr noundef nonnull align 8 dereferenceable(49) %0, ptr noundef nonnull %1)
  br label %_ZNK14PhaseIdealLoop8has_ctrlEPK4Node.exit.thread

_ZNK14PhaseIdealLoop8has_ctrlEPK4Node.exit.thread: ; preds = %2, %_ZNK14PhaseIdealLoop8has_ctrlEPK4Node.exit, %17
  %.0 = phi ptr [ %18, %17 ], [ %1, %_ZNK14PhaseIdealLoop8has_ctrlEPK4Node.exit ], [ %1, %2 ]
  ret ptr %.0
}